; Function Attrs: nounwind uwtable
define internal fastcc range(i32 -1, 1) i32 @pqPutMsgBytes(ptr noundef readonly captures(none) %0, i64 noundef %1, ptr noundef %2) unnamed_addr #2 {
  %4 = getelementptr inbounds nuw i8, ptr %2, i64 1044
  %5 = load i32, ptr %4, align 4
  %6 = sext i32 %5 to i64
  %7 = add i64 %1, %6
  %8 = getelementptr inbounds nuw i8, ptr %2, i64 1032
  %9 = load i32, ptr %8, align 8
  %10 = sext i32 %9 to i64
  %.not.i = icmp ugt i64 %7, %10
  br i1 %.not.i, label %.preheader.i, label %._crit_edge

._crit_edge:                                      ; preds = %3
  %.phi.trans.insert = getelementptr inbounds nuw i8, ptr %2, i64 1024
  %.pre = load ptr, ptr %.phi.trans.insert, align 8
  br label %35

.preheader.i:                                     ; preds = %3, %.preheader.i
  %.0.i = phi i32 [ %11, %.preheader.i ], [ %9, %3 ]
  %11 = shl i32 %.0.i, 1
  %12 = icmp sgt i32 %11, 0
  %13 = sext i32 %11 to i64
  %14 = icmp ugt i64 %7, %13
  %15 = and i1 %12, %14
  br i1 %15, label %.preheader.i, label %16, !llvm.loop !3

16:                                               ; preds = %.preheader.i
  %.not44.i = xor i1 %12, true
  %or.cond.i = or i1 %14, %.not44.i
  br i1 %or.cond.i, label %.preheader, label %17

.preheader:                                       ; preds = %._crit_edge.i, %16
  %.1.i.ph = phi i32 [ %9, %16 ], [ %.pre.i, %._crit_edge.i ]
  br label %22

17:                                               ; preds = %16
  %18 = getelementptr inbounds nuw i8, ptr %2, i64 1024
  %19 = load ptr, ptr %18, align 8
  %20 = tail call ptr @realloc(ptr noundef %19, i64 noundef %13) #18
  %.not41.i = icmp eq ptr %20, null
  br i1 %.not41.i, label %._crit_edge.i, label %21

._crit_edge.i:                                    ; preds = %17
  %.pre.i = load i32, ptr %8, align 8
  br label %.preheader

21:                                               ; preds = %17
  store ptr %20, ptr %18, align 8
  store i32 %11, ptr %8, align 8
  br label %35

22:                                               ; preds = %.preheader, %22
  %.1.i = phi i32 [ %23, %22 ], [ %.1.i.ph, %.preheader ]
  %23 = add i32 %.1.i, 8192
  %24 = icmp sgt i32 %23, 0
  %25 = sext i32 %23 to i64
  %26 = icmp ugt i64 %7, %25
  %27 = and i1 %24, %26
  br i1 %27, label %22, label %28, !llvm.loop !5

28:                                               ; preds = %22
  %.not45.i = xor i1 %24, true
  %or.cond46.i = or i1 %26, %.not45.i
  br i1 %or.cond46.i, label %pqCheckOutBufferSpace.exit, label %29

29:                                               ; preds = %28
  %30 = getelementptr inbounds nuw i8, ptr %2, i64 1024
  %31 = load ptr, ptr %30, align 8
  %32 = tail call ptr @realloc(ptr noundef %31, i64 noundef %25) #18
  %.not43.i = icmp eq ptr %32, null
  br i1 %.not43.i, label %pqCheckOutBufferSpace.exit, label %33

33:                                               ; preds = %29
  store ptr %32, ptr %30, align 8
  store i32 %23, ptr %8, align 8
  br label %35

pqCheckOutBufferSpace.exit:                       ; preds = %28, %29
  %34 = getelementptr inbounds nuw i8, ptr %2, i64 1120
  tail call void @appendPQExpBufferStr(ptr noundef nonnull %34, ptr noundef nonnull @.str.2) #19
  br label %43

35:                                               ; preds = %._crit_edge, %21, %33
  %36 = phi ptr [ %.pre, %._crit_edge ], [ %20, %21 ], [ %32, %33 ]
  %37 = load i32, ptr %4, align 4
  %38 = sext i32 %37 to i64
  %39 = getelementptr inbounds i8, ptr %36, i64 %38
  tail call void @llvm.memcpy.p0.p0.i64(ptr align 1 %39, ptr align 1 %0, i64 %1, i1 false)
  %40 = load i32, ptr %4, align 4
  %41 = trunc i64 %1 to i32
  %42 = add i32 %40, %41
  store i32 %42, ptr %4, align 4
  br label %43

43:                                               ; preds = %pqCheckOutBufferSpace.exit, %35
  %.0 = phi i32 [ 0, %35 ], [ -1, %pqCheckOutBufferSpace.exit ]
  ret i32 %.0
}